target datalayout = "e-m:e-p270:32:32-p271:32:32-p272:64:64-i64:64-i128:128-f80:128-n8:16:32:64-S128"
target triple = "x86_64-pc-linux-gnu"

%"class.std::vector.281" = type { %"struct.std::_Vector_base.282" }
%"struct.std::_Vector_base.282" = type { %"struct.std::_Vector_base<unsigned long, std::allocator<unsigned long>>::_Vector_impl" }
%"struct.std::_Vector_base<unsigned long, std::allocator<unsigned long>>::_Vector_impl" = type { %"struct.std::_Vector_base<unsigned long, std::allocator<unsigned long>>::_Vector_impl_data" }
%"struct.std::_Vector_base<unsigned long, std::allocator<unsigned long>>::_Vector_impl_data" = type { ptr, ptr, ptr }
%"class.open3d::(anonymous namespace)::DisjointSet" = type { %"class.std::vector.281", %"class.std::vector.281" }

; Function Attrs: mustprogress nounwind ssp uwtable
define linkonce_odr noundef nonnull align 8 dereferenceable(8) ptr @_ZNSt6vectorImSaImEEixEm(ptr noundef nonnull align 8 dereferenceable(24) %0, i64 noundef %1) #1 comdat align 2 {
  %3 = alloca ptr, align 8
  %4 = alloca i64, align 8
  store ptr %0, ptr %3, align 8, !tbaa !828
  store i64 %1, ptr %4, align 8, !tbaa !29
  %5 = load ptr, ptr %3, align 8
  %6 = getelementptr inbounds nuw %"struct.std::_Vector_base.282", ptr %5, i32 0, i32 0
  %7 = getelementptr inbounds nuw %"struct.std::_Vector_base<unsigned long, std::allocator<unsigned long>>::_Vector_impl_data", ptr %6, i32 0, i32 0
  %8 = load ptr, ptr %7, align 8, !tbaa !928
  %9 = load i64, ptr %4, align 8, !tbaa !29
  %10 = getelementptr inbounds nuw i64, ptr %8, i64 %9
  ret ptr %10
}

; Function Attrs: mustprogress ssp uwtable
define internal noundef i64 @_ZN6open3d12_GLOBAL__N_111DisjointSet4FindEm(ptr noundef nonnull align 8 dereferenceable(48) %0, i64 noundef %1) #3 align 2 {
  %3 = alloca ptr, align 8
  %4 = alloca i64, align 8
  store ptr %0, ptr %3, align 8, !tbaa !1047
  store i64 %1, ptr %4, align 8, !tbaa !29
  %5 = load ptr, ptr %3, align 8
  %6 = load i64, ptr %4, align 8, !tbaa !29
  %7 = getelementptr inbounds nuw %"class.open3d::(anonymous namespace)::DisjointSet", ptr %5, i32 0, i32 0
  %8 = load i64, ptr %4, align 8, !tbaa !29
  %9 = call noundef nonnull align 8 dereferenceable(8) ptr @_ZNSt6vectorImSaImEEixEm(ptr noundef nonnull align 8 dereferenceable(24) %7, i64 noundef %8) #6
  %10 = load i64, ptr %9, align 8, !tbaa !29
  %11 = icmp ne i64 %6, %10
  br i1 %11, label %12, label %21

12:                                               ; preds = %2
  %13 = getelementptr inbounds nuw %"class.open3d::(anonymous namespace)::DisjointSet", ptr %5, i32 0, i32 0
  %14 = load i64, ptr %4, align 8, !tbaa !29
  %15 = call noundef nonnull align 8 dereferenceable(8) ptr @_ZNSt6vectorImSaImEEixEm(ptr noundef nonnull align 8 dereferenceable(24) %13, i64 noundef %14) #6
  %16 = load i64, ptr %15, align 8, !tbaa !29
  %17 = call noundef i64 @_ZN6open3d12_GLOBAL__N_111DisjointSet4FindEm(ptr noundef nonnull align 8 dereferenceable(48) %5, i64 noundef %16)
  %18 = getelementptr inbounds nuw %"class.open3d::(anonymous namespace)::DisjointSet", ptr %5, i32 0, i32 0
  %19 = load i64, ptr %4, align 8, !tbaa !29
  %20 = call noundef nonnull align 8 dereferenceable(8) ptr @_ZNSt6vectorImSaImEEixEm(ptr noundef nonnull align 8 dereferenceable(24) %18, i64 noundef %19) #6
  store i64 %17, ptr %20, align 8, !tbaa !29
  br label %21

21:                                               ; preds = %12, %2
  %22 = getelementptr inbounds nuw %"class.open3d::(anonymous namespace)::DisjointSet", ptr %5, i32 0, i32 0
  %23 = load i64, ptr %4, align 8, !tbaa !29
  %24 = call noundef nonnull align 8 dereferenceable(8) ptr @_ZNSt6vectorImSaImEEixEm(ptr noundef nonnull align 8 dereferenceable(24) %22, i64 noundef %23) #6
  %25 = load i64, ptr %24, align 8, !tbaa !29
  ret i64 %25
}