; Function Attrs: mustprogress nofree nosync nounwind ssp memory(readwrite, inaccessiblemem: none) uwtable
define internal fastcc noundef i64 @_ZN6open3d12_GLOBAL__N_111DisjointSet4FindEm(ptr noundef nonnull readonly align 8 captures(none) dereferenceable(48) %0, i64 noundef %1) unnamed_addr #23 align 2 {
  %3 = load ptr, ptr %0, align 8, !tbaa !90
  %4 = getelementptr inbounds nuw i64, ptr %3, i64 %1
  %5 = load i64, ptr %4, align 8, !tbaa !78
  %.not = icmp eq i64 %1, %5
  br i1 %.not, label %common.ret, label %6

common.ret:                                       ; preds = %2, %6
  %common.ret.op = phi i64 [ %7, %6 ], [ %1, %2 ]
  ret i64 %common.ret.op

6:                                                ; preds = %2
  %7 = tail call fastcc noundef i64 @_ZN6open3d12_GLOBAL__N_111DisjointSet4FindEm(ptr noundef nonnull align 8 dereferenceable(48) %0, i64 noundef %5)
  %8 = load ptr, ptr %0, align 8, !tbaa !90
  %9 = getelementptr inbounds nuw i64, ptr %8, i64 %1
  store i64 %7, ptr %9, align 8, !tbaa !78
  br label %common.ret
}